; Function Attrs: mustprogress uwtable
define dso_local void @_ZN18cmLinkLineComputer15ComputeLinkLibsB5cxx11ER24cmComputeLinkInformation(ptr dead_on_unwind noalias nonnull writable sret(%"class.std::__cxx11::basic_string") align 8 %0, ptr noundef nonnull align 8 dereferenceable(60) %1, ptr noundef nonnull align 8 dereferenceable(2960) %2) local_unnamed_addr #9 align 2 personality ptr @__gxx_personality_v0 {
  %4 = alloca %"class.std::vector", align 8
  tail call void @_ZNSt7__cxx1112basic_stringIcSt11char_traitsIcESaIcEEC1Ev(ptr noundef nonnull align 8 dereferenceable(32) %0) #19
  call void @llvm.memset.p0.i64(ptr noundef nonnull align 8 dereferenceable(24) %4, i8 0, i64 24, i1 false)
  invoke void @_ZN18cmLinkLineComputer15ComputeLinkLibsER24cmComputeLinkInformationRSt6vectorI2BTINSt7__cxx1112basic_stringIcSt11char_traitsIcESaIcEEEESaISA_EE(ptr noundef nonnull align 8 dereferenceable(60) %1, ptr noundef nonnull align 8 dereferenceable(2960) %2, ptr noundef nonnull align 8 dereferenceable(24) %4)
          to label %5 unwind label %7

5:                                                ; preds = %3
  invoke void @_ZN24cmComputeLinkInformation12AppendValuesERNSt7__cxx1112basic_stringIcSt11char_traitsIcESaIcEEERSt6vectorI2BTIS5_ESaIS9_EE(ptr noundef nonnull align 8 dereferenceable(2960) %2, ptr noundef nonnull align 8 dereferenceable(32) %0, ptr noundef nonnull align 8 dereferenceable(24) %4)
          to label %6 unwind label %7

6:                                                ; preds = %5
  call void @_ZNSt6vectorI2BTINSt7__cxx1112basic_stringIcSt11char_traitsIcESaIcEEEESaIS7_EED2Ev(ptr noundef nonnull align 8 dereferenceable(24) %4) #19
  ret void

7:                                                ; preds = %5, %3
  %8 = landingpad { ptr, i32 }
          cleanup
  call void @_ZNSt6vectorI2BTINSt7__cxx1112basic_stringIcSt11char_traitsIcESaIcEEEESaIS7_EED2Ev(ptr noundef nonnull align 8 dereferenceable(24) %4) #19
  call void @_ZNSt7__cxx1112basic_stringIcSt11char_traitsIcESaIcEED1Ev(ptr noundef nonnull align 8 dereferenceable(32) %0) #19
  resume { ptr, i32 } %8
}